; Function Attrs: mustprogress nounwind uwtable
define dso_local ptr @LLVMDIScopeGetFile(ptr noundef %0) local_unnamed_addr #0 {
  %2 = load i8, ptr %0, align 4
  %3 = icmp eq i8 %2, 16
  br i1 %3, label %_ZNK4llvm7DIScope7getFileEv.exit, label %4

4:                                                ; preds = %1
  %5 = getelementptr inbounds i8, ptr %0, i64 -16
  %6 = load i64, ptr %5, align 8
  %7 = and i64 %6, 2
  %.not.i.i.i.i = icmp eq i64 %7, 0
  br i1 %.not.i.i.i.i, label %12, label %8

8:                                                ; preds = %4
  %9 = getelementptr inbounds i8, ptr %0, i64 -32
  %10 = load ptr, ptr %9, align 8
  %11 = tail call noundef i64 @_ZNK4llvm15SmallVectorBaseIjE4sizeEv(ptr noundef nonnull align 8 dereferenceable(16) %9) #15
  br label %_ZNK4llvm6MDNode10getOperandEj.exit.i.i

12:                                               ; preds = %4
  %13 = lshr i64 %6, 2
  %14 = and i64 %13, 15
  %15 = sub nsw i64 0, %14
  %16 = getelementptr inbounds %"class.llvm::MDOperand", ptr %5, i64 %15
  br label %_ZNK4llvm6MDNode10getOperandEj.exit.i.i

_ZNK4llvm6MDNode10getOperandEj.exit.i.i:          ; preds = %12, %8
  %.sroa.0.0.i.i.i.i = phi ptr [ %16, %12 ], [ %10, %8 ]
  %17 = load ptr, ptr %.sroa.0.0.i.i.i.i, align 8
  br label %_ZNK4llvm7DIScope7getFileEv.exit

_ZNK4llvm7DIScope7getFileEv.exit:                 ; preds = %1, %_ZNK4llvm6MDNode10getOperandEj.exit.i.i
  %18 = phi ptr [ %17, %_ZNK4llvm6MDNode10getOperandEj.exit.i.i ], [ %0, %1 ]
  ret ptr %18
}